target datalayout = "e-m:e-p270:32:32-p271:32:32-p272:64:64-i64:64-i128:128-f80:128-n8:16:32:64-S128"
target triple = "x86_64-pc-linux-gnu"

%struct.UNP = type { ptr, ptr, i32, i32, i32, i32, i32, %union.anon, i32 }
%union.anon = type { i32 }
%struct.anon = type { i16, i16 }

@.str.480 = private unnamed_addr constant [47 x i8] c"autoit: getbits() - not enough bits available\0A\00", align 1

; Function Attrs: nounwind uwtable
define internal i32 @getbits(ptr noundef %0, i32 noundef %1) #0 {
  %3 = alloca i32, align 4
  %4 = alloca ptr, align 8
  %5 = alloca i32, align 4
  store ptr %0, ptr %4, align 8
  store i32 %1, ptr %5, align 4
  %6 = load ptr, ptr %4, align 8
  %7 = getelementptr inbounds %struct.UNP, ptr %6, i32 0, i32 7
  %8 = getelementptr inbounds %struct.anon, ptr %7, i32 0, i32 1
  store i16 0, ptr %8, align 2
  %9 = load i32, ptr %5, align 4
  %10 = load ptr, ptr %4, align 8
  %11 = getelementptr inbounds %struct.UNP, ptr %10, i32 0, i32 6
  %12 = load i32, ptr %11, align 8
  %13 = icmp ugt i32 %9, %12
  br i1 %13, label %14, label %35

14:                                               ; preds = %2
  %15 = load i32, ptr %5, align 4
  %16 = load ptr, ptr %4, align 8
  %17 = getelementptr inbounds %struct.UNP, ptr %16, i32 0, i32 6
  %18 = load i32, ptr %17, align 8
  %19 = sub i32 %15, %18
  %20 = sub i32 %19, 1
  %21 = udiv i32 %20, 16
  %22 = add i32 %21, 1
  %23 = mul i32 %22, 2
  %24 = load ptr, ptr %4, align 8
  %25 = getelementptr inbounds %struct.UNP, ptr %24, i32 0, i32 5
  %26 = load i32, ptr %25, align 4
  %27 = load ptr, ptr %4, align 8
  %28 = getelementptr inbounds %struct.UNP, ptr %27, i32 0, i32 3
  %29 = load i32, ptr %28, align 4
  %30 = sub i32 %26, %29
  %31 = icmp ugt i32 %23, %30
  br i1 %31, label %32, label %35

32:                                               ; preds = %14
  call void (ptr, ...) @cli_dbgmsg(ptr noundef @.str.480)
  %33 = load ptr, ptr %4, align 8
  %34 = getelementptr inbounds %struct.UNP, ptr %33, i32 0, i32 8
  store i32 1, ptr %34, align 8
  store i32 0, ptr %3, align 4
  br label %101

35:                                               ; preds = %14, %2
  br label %36

36:                                               ; preds = %84, %35
  %37 = load i32, ptr %5, align 4
  %38 = icmp ne i32 %37, 0
  br i1 %38, label %39, label %95

39:                                               ; preds = %36
  %40 = load ptr, ptr %4, align 8
  %41 = getelementptr inbounds %struct.UNP, ptr %40, i32 0, i32 6
  %42 = load i32, ptr %41, align 8
  %43 = icmp ne i32 %42, 0
  br i1 %43, label %84, label %44

44:                                               ; preds = %39
  %45 = load ptr, ptr %4, align 8
  %46 = getelementptr inbounds %struct.UNP, ptr %45, i32 0, i32 1
  %47 = load ptr, ptr %46, align 8
  %48 = load ptr, ptr %4, align 8
  %49 = getelementptr inbounds %struct.UNP, ptr %48, i32 0, i32 3
  %50 = load i32, ptr %49, align 4
  %51 = add i32 %50, 1
  store i32 %51, ptr %49, align 4
  %52 = zext i32 %50 to i64
  %53 = getelementptr inbounds i8, ptr %47, i64 %52
  %54 = load i8, ptr %53, align 1
  %55 = zext i8 %54 to i32
  %56 = shl i32 %55, 8
  %57 = load ptr, ptr %4, align 8
  %58 = getelementptr inbounds %struct.UNP, ptr %57, i32 0, i32 7
  %59 = getelementptr inbounds %struct.anon, ptr %58, i32 0, i32 0
  %60 = load i16, ptr %59, align 4
  %61 = zext i16 %60 to i32
  %62 = or i32 %61, %56
  %63 = trunc i32 %62 to i16
  store i16 %63, ptr %59, align 4
  %64 = load ptr, ptr %4, align 8
  %65 = getelementptr inbounds %struct.UNP, ptr %64, i32 0, i32 1
  %66 = load ptr, ptr %65, align 8
  %67 = load ptr, ptr %4, align 8
  %68 = getelementptr inbounds %struct.UNP, ptr %67, i32 0, i32 3
  %69 = load i32, ptr %68, align 4
  %70 = add i32 %69, 1
  store i32 %70, ptr %68, align 4
  %71 = zext i32 %69 to i64
  %72 = getelementptr inbounds i8, ptr %66, i64 %71
  %73 = load i8, ptr %72, align 1
  %74 = zext i8 %73 to i32
  %75 = load ptr, ptr %4, align 8
  %76 = getelementptr inbounds %struct.UNP, ptr %75, i32 0, i32 7
  %77 = getelementptr inbounds %struct.anon, ptr %76, i32 0, i32 0
  %78 = load i16, ptr %77, align 4
  %79 = zext i16 %78 to i32
  %80 = or i32 %79, %74
  %81 = trunc i32 %80 to i16
  store i16 %81, ptr %77, align 4
  %82 = load ptr, ptr %4, align 8
  %83 = getelementptr inbounds %struct.UNP, ptr %82, i32 0, i32 6
  store i32 16, ptr %83, align 8
  br label %84

84:                                               ; preds = %44, %39
  %85 = load ptr, ptr %4, align 8
  %86 = getelementptr inbounds %struct.UNP, ptr %85, i32 0, i32 7
  %87 = load i32, ptr %86, align 4
  %88 = shl i32 %87, 1
  store i32 %88, ptr %86, align 4
  %89 = load ptr, ptr %4, align 8
  %90 = getelementptr inbounds %struct.UNP, ptr %89, i32 0, i32 6
  %91 = load i32, ptr %90, align 8
  %92 = add i32 %91, -1
  store i32 %92, ptr %90, align 8
  %93 = load i32, ptr %5, align 4
  %94 = add i32 %93, -1
  store i32 %94, ptr %5, align 4
  br label %36

95:                                               ; preds = %36
  %96 = load ptr, ptr %4, align 8
  %97 = getelementptr inbounds %struct.UNP, ptr %96, i32 0, i32 7
  %98 = getelementptr inbounds %struct.anon, ptr %97, i32 0, i32 1
  %99 = load i16, ptr %98, align 2
  %100 = zext i16 %99 to i32
  store i32 %100, ptr %3, align 4
  br label %101

101:                                              ; preds = %95, %32
  %102 = load i32, ptr %3, align 4
  ret i32 %102
}