; Function Attrs: nounwind uwtable
define internal fastcc i32 @getbits(ptr nocapture noundef %0, i32 noundef %1) unnamed_addr #0 {
  %3 = getelementptr inbounds i8, ptr %0, i64 36
  %4 = getelementptr inbounds i8, ptr %0, i64 38
  store i16 0, ptr %4, align 2
  %5 = getelementptr inbounds i8, ptr %0, i64 32
  %6 = load i32, ptr %5, align 8
  %7 = icmp ult i32 %6, %1
  br i1 %7, label %8, label %22

8:                                                ; preds = %2
  %9 = xor i32 %6, -1
  %10 = add i32 %9, %1
  %11 = lshr i32 %10, 3
  %12 = and i32 %11, 536870910
  %13 = add nuw nsw i32 %12, 2
  %14 = getelementptr inbounds i8, ptr %0, i64 28
  %15 = load i32, ptr %14, align 4
  %16 = getelementptr inbounds i8, ptr %0, i64 20
  %17 = load i32, ptr %16, align 4
  %18 = sub i32 %15, %17
  %19 = icmp ugt i32 %13, %18
  br i1 %19, label %20, label %.lr.ph

20:                                               ; preds = %8
  tail call void (ptr, ...) @cli_dbgmsg(ptr noundef nonnull @.str.480) #13
  %21 = getelementptr inbounds i8, ptr %0, i64 40
  store i32 1, ptr %21, align 8
  br label %._crit_edge

22:                                               ; preds = %2
  %.not25 = icmp eq i32 %1, 0
  br i1 %.not25, label %._crit_edge, label %.lr.ph

.lr.ph:                                           ; preds = %8, %22
  %23 = getelementptr inbounds i8, ptr %0, i64 8
  %24 = getelementptr inbounds i8, ptr %0, i64 20
  br label %25

25:                                               ; preds = %.lr.ph, %44
  %26 = phi i32 [ %6, %.lr.ph ], [ %48, %44 ]
  %.026 = phi i32 [ %1, %.lr.ph ], [ %49, %44 ]
  %.not24 = icmp eq i32 %26, 0
  br i1 %.not24, label %27, label %44

27:                                               ; preds = %25
  %28 = load ptr, ptr %23, align 8
  %29 = load i32, ptr %24, align 4
  %30 = add i32 %29, 1
  store i32 %30, ptr %24, align 4
  %31 = zext i32 %29 to i64
  %32 = getelementptr inbounds i8, ptr %28, i64 %31
  %33 = load i8, ptr %32, align 1
  %34 = zext i8 %33 to i16
  %35 = shl nuw i16 %34, 8
  %36 = load i16, ptr %3, align 4
  %37 = or i16 %35, %36
  store i16 %37, ptr %3, align 4
  %38 = add i32 %29, 2
  store i32 %38, ptr %24, align 4
  %39 = zext i32 %30 to i64
  %40 = getelementptr inbounds i8, ptr %28, i64 %39
  %41 = load i8, ptr %40, align 1
  %42 = zext i8 %41 to i16
  %43 = or i16 %37, %42
  store i16 %43, ptr %3, align 4
  br label %44

44:                                               ; preds = %27, %25
  %45 = phi i32 [ 16, %27 ], [ %26, %25 ]
  %46 = load i32, ptr %3, align 4
  %47 = shl i32 %46, 1
  store i32 %47, ptr %3, align 4
  %48 = add i32 %45, -1
  store i32 %48, ptr %5, align 8
  %49 = add nsw i32 %.026, -1
  %.not = icmp eq i32 %49, 0
  br i1 %.not, label %._crit_edge.loopexit, label %25

._crit_edge.loopexit:                             ; preds = %44
  %50 = lshr i32 %47, 16
  br label %._crit_edge

._crit_edge:                                      ; preds = %22, %._crit_edge.loopexit, %20
  %.021 = phi i32 [ 0, %20 ], [ %50, %._crit_edge.loopexit ], [ 0, %22 ]
  ret i32 %.021
}